target datalayout = "e-m:e-p270:32:32-p271:32:32-p272:64:64-i64:64-i128:128-f80:128-n8:16:32:64-S128"
target triple = "x86_64-pc-linux-gnu"

%struct.anon.2 = type { ptr, ptr }
%struct.callback_functions = type { ptr, ptr, ptr, ptr, ptr, ptr, ptr, ptr, ptr, ptr, i32, i32, i32, i8 }

@testDevId = dso_local global i32 -2, align 4
@stderr = external global ptr, align 8
@__const.test_wolfSSL_UseSNI_connection.methods = private unnamed_addr constant [2 x %struct.anon.2] [%struct.anon.2 { ptr @wolfTLSv1_2_client_method, ptr @wolfTLSv1_2_server_method }, %struct.anon.2 { ptr @wolfTLSv1_3_client_method, ptr @wolfTLSv1_3_server_method }], align 16
@.str.2009 = private unnamed_addr constant [23 x i8] c"\0A\09success case at ctx\0A\00", align 1
@.str.2010 = private unnamed_addr constant [22 x i8] c"\09success case at ssl\0A\00", align 1
@.str.2011 = private unnamed_addr constant [28 x i8] c"\09default mismatch behavior\0A\00", align 1
@.str.2012 = private unnamed_addr constant [23 x i8] c"\09continue on mismatch\0A\00", align 1
@.str.2013 = private unnamed_addr constant [26 x i8] c"\09fake answer on mismatch\0A\00", align 1
@.str.2014 = private unnamed_addr constant [22 x i8] c"\09sni abort - success\0A\00", align 1
@.str.2015 = private unnamed_addr constant [38 x i8] c"\09sni abort - abort when absent (ctx)\0A\00", align 1
@.str.2016 = private unnamed_addr constant [38 x i8] c"\09sni abort - abort when absent (ssl)\0A\00", align 1
@.str.2017 = private unnamed_addr constant [39 x i8] c"\09sni abort - success when overwritten\0A\00", align 1
@.str.2018 = private unnamed_addr constant [47 x i8] c"\09sni abort - success when allowing mismatches\0A\00", align 1

; Function Attrs: nounwind uwtable
define internal i32 @test_wolfSSL_UseSNI_connection() #0 {
  %1 = alloca i32, align 4
  %2 = alloca %struct.callback_functions, align 8
  %3 = alloca %struct.callback_functions, align 8
  %4 = alloca i64, align 8
  %5 = alloca [2 x %struct.anon.2], align 16
  %6 = alloca i64, align 8
  call void @llvm.lifetime.start.p0(i64 4, ptr %1) #14
  store i32 3, ptr %1, align 4, !tbaa !10
  call void @llvm.lifetime.start.p0(i64 96, ptr %2) #14
  call void @llvm.lifetime.start.p0(i64 96, ptr %3) #14
  call void @llvm.lifetime.start.p0(i64 8, ptr %4) #14
  call void @llvm.lifetime.start.p0(i64 32, ptr %5) #14
  call void @llvm.memcpy.p0.p0.i64(ptr align 16 %5, ptr align 16 @__const.test_wolfSSL_UseSNI_connection.methods, i64 32, i1 false)
  call void @llvm.lifetime.start.p0(i64 8, ptr %6) #14
  store i64 2, ptr %6, align 8, !tbaa !72
  store i64 0, ptr %4, align 8, !tbaa !72
  br label %7

7:                                                ; preds = %106, %0
  %8 = load i64, ptr %4, align 8, !tbaa !72
  %9 = load i64, ptr %6, align 8, !tbaa !72
  %10 = icmp ult i64 %8, %9
  br i1 %10, label %11, label %109

11:                                               ; preds = %7
  call void @llvm.memset.p0.i64(ptr align 8 %2, i8 0, i64 96, i1 false)
  call void @llvm.memset.p0.i64(ptr align 8 %3, i8 0, i64 96, i1 false)
  %12 = load i64, ptr %4, align 8, !tbaa !72
  %13 = getelementptr inbounds nuw [2 x %struct.anon.2], ptr %5, i64 0, i64 %12
  %14 = getelementptr inbounds nuw %struct.anon.2, ptr %13, i32 0, i32 0
  %15 = load ptr, ptr %14, align 16, !tbaa !167
  %16 = getelementptr inbounds nuw %struct.callback_functions, ptr %2, i32 0, i32 0
  store ptr %15, ptr %16, align 8, !tbaa !89
  %17 = load i64, ptr %4, align 8, !tbaa !72
  %18 = getelementptr inbounds nuw [2 x %struct.anon.2], ptr %5, i64 0, i64 %17
  %19 = getelementptr inbounds nuw %struct.anon.2, ptr %18, i32 0, i32 1
  %20 = load ptr, ptr %19, align 8, !tbaa !169
  %21 = getelementptr inbounds nuw %struct.callback_functions, ptr %3, i32 0, i32 0
  store ptr %20, ptr %21, align 8, !tbaa !89
  %22 = load i32, ptr @testDevId, align 4, !tbaa !10
  %23 = getelementptr inbounds nuw %struct.callback_functions, ptr %2, i32 0, i32 10
  store i32 %22, ptr %23, align 8, !tbaa !170
  %24 = load i32, ptr @testDevId, align 4, !tbaa !10
  %25 = getelementptr inbounds nuw %struct.callback_functions, ptr %3, i32 0, i32 10
  store i32 %24, ptr %25, align 8, !tbaa !170
  %26 = load ptr, ptr @stderr, align 8, !tbaa !22
  %27 = call i32 (ptr, ptr, ...) @fprintf(ptr noundef %26, ptr noundef @.str.2009) #14
  %28 = getelementptr inbounds nuw %struct.callback_functions, ptr %2, i32 0, i32 1
  store ptr @use_SNI_at_ctx, ptr %28, align 8, !tbaa !93
  %29 = getelementptr inbounds nuw %struct.callback_functions, ptr %2, i32 0, i32 2
  store ptr null, ptr %29, align 8, !tbaa !94
  %30 = getelementptr inbounds nuw %struct.callback_functions, ptr %2, i32 0, i32 3
  store ptr null, ptr %30, align 8, !tbaa !96
  %31 = getelementptr inbounds nuw %struct.callback_functions, ptr %3, i32 0, i32 1
  store ptr @use_SNI_at_ctx, ptr %31, align 8, !tbaa !93
  %32 = getelementptr inbounds nuw %struct.callback_functions, ptr %3, i32 0, i32 2
  store ptr null, ptr %32, align 8, !tbaa !94
  %33 = getelementptr inbounds nuw %struct.callback_functions, ptr %3, i32 0, i32 3
  store ptr @verify_SNI_real_matching, ptr %33, align 8, !tbaa !96
  call void @test_wolfSSL_client_server(ptr noundef %2, ptr noundef %3)
  %34 = load ptr, ptr @stderr, align 8, !tbaa !22
  %35 = call i32 (ptr, ptr, ...) @fprintf(ptr noundef %34, ptr noundef @.str.2010) #14
  %36 = getelementptr inbounds nuw %struct.callback_functions, ptr %2, i32 0, i32 1
  store ptr null, ptr %36, align 8, !tbaa !93
  %37 = getelementptr inbounds nuw %struct.callback_functions, ptr %2, i32 0, i32 2
  store ptr @use_SNI_at_ssl, ptr %37, align 8, !tbaa !94
  %38 = getelementptr inbounds nuw %struct.callback_functions, ptr %2, i32 0, i32 3
  store ptr @verify_SNI_real_matching, ptr %38, align 8, !tbaa !96
  %39 = getelementptr inbounds nuw %struct.callback_functions, ptr %3, i32 0, i32 1
  store ptr null, ptr %39, align 8, !tbaa !93
  %40 = getelementptr inbounds nuw %struct.callback_functions, ptr %3, i32 0, i32 2
  store ptr @use_SNI_at_ssl, ptr %40, align 8, !tbaa !94
  %41 = getelementptr inbounds nuw %struct.callback_functions, ptr %3, i32 0, i32 3
  store ptr @verify_SNI_real_matching, ptr %41, align 8, !tbaa !96
  call void @test_wolfSSL_client_server(ptr noundef %2, ptr noundef %3)
  %42 = load ptr, ptr @stderr, align 8, !tbaa !22
  %43 = call i32 (ptr, ptr, ...) @fprintf(ptr noundef %42, ptr noundef @.str.2011) #14
  %44 = getelementptr inbounds nuw %struct.callback_functions, ptr %2, i32 0, i32 1
  store ptr null, ptr %44, align 8, !tbaa !93
  %45 = getelementptr inbounds nuw %struct.callback_functions, ptr %2, i32 0, i32 2
  store ptr @different_SNI_at_ssl, ptr %45, align 8, !tbaa !94
  %46 = getelementptr inbounds nuw %struct.callback_functions, ptr %2, i32 0, i32 3
  store ptr @verify_FATAL_ERROR_on_client, ptr %46, align 8, !tbaa !96
  %47 = getelementptr inbounds nuw %struct.callback_functions, ptr %3, i32 0, i32 1
  store ptr null, ptr %47, align 8, !tbaa !93
  %48 = getelementptr inbounds nuw %struct.callback_functions, ptr %3, i32 0, i32 2
  store ptr @use_SNI_at_ssl, ptr %48, align 8, !tbaa !94
  %49 = getelementptr inbounds nuw %struct.callback_functions, ptr %3, i32 0, i32 3
  store ptr @verify_UNKNOWN_SNI_on_server, ptr %49, align 8, !tbaa !96
  call void @test_wolfSSL_client_server(ptr noundef %2, ptr noundef %3)
  %50 = load ptr, ptr @stderr, align 8, !tbaa !22
  %51 = call i32 (ptr, ptr, ...) @fprintf(ptr noundef %50, ptr noundef @.str.2012) #14
  %52 = getelementptr inbounds nuw %struct.callback_functions, ptr %2, i32 0, i32 1
  store ptr null, ptr %52, align 8, !tbaa !93
  %53 = getelementptr inbounds nuw %struct.callback_functions, ptr %2, i32 0, i32 2
  store ptr @different_SNI_at_ssl, ptr %53, align 8, !tbaa !94
  %54 = getelementptr inbounds nuw %struct.callback_functions, ptr %2, i32 0, i32 3
  store ptr null, ptr %54, align 8, !tbaa !96
  %55 = getelementptr inbounds nuw %struct.callback_functions, ptr %3, i32 0, i32 1
  store ptr null, ptr %55, align 8, !tbaa !93
  %56 = getelementptr inbounds nuw %struct.callback_functions, ptr %3, i32 0, i32 2
  store ptr @use_SNI_WITH_CONTINUE_at_ssl, ptr %56, align 8, !tbaa !94
  %57 = getelementptr inbounds nuw %struct.callback_functions, ptr %3, i32 0, i32 3
  store ptr @verify_SNI_no_matching, ptr %57, align 8, !tbaa !96
  call void @test_wolfSSL_client_server(ptr noundef %2, ptr noundef %3)
  %58 = load ptr, ptr @stderr, align 8, !tbaa !22
  %59 = call i32 (ptr, ptr, ...) @fprintf(ptr noundef %58, ptr noundef @.str.2013) #14
  %60 = getelementptr inbounds nuw %struct.callback_functions, ptr %2, i32 0, i32 1
  store ptr null, ptr %60, align 8, !tbaa !93
  %61 = getelementptr inbounds nuw %struct.callback_functions, ptr %2, i32 0, i32 2
  store ptr @different_SNI_at_ssl, ptr %61, align 8, !tbaa !94
  %62 = getelementptr inbounds nuw %struct.callback_functions, ptr %2, i32 0, i32 3
  store ptr null, ptr %62, align 8, !tbaa !96
  %63 = getelementptr inbounds nuw %struct.callback_functions, ptr %3, i32 0, i32 1
  store ptr null, ptr %63, align 8, !tbaa !93
  %64 = getelementptr inbounds nuw %struct.callback_functions, ptr %3, i32 0, i32 2
  store ptr @use_SNI_WITH_FAKE_ANSWER_at_ssl, ptr %64, align 8, !tbaa !94
  %65 = getelementptr inbounds nuw %struct.callback_functions, ptr %3, i32 0, i32 3
  store ptr @verify_SNI_fake_matching, ptr %65, align 8, !tbaa !96
  call void @test_wolfSSL_client_server(ptr noundef %2, ptr noundef %3)
  %66 = load ptr, ptr @stderr, align 8, !tbaa !22
  %67 = call i32 (ptr, ptr, ...) @fprintf(ptr noundef %66, ptr noundef @.str.2014) #14
  %68 = getelementptr inbounds nuw %struct.callback_functions, ptr %2, i32 0, i32 1
  store ptr @use_SNI_at_ctx, ptr %68, align 8, !tbaa !93
  %69 = getelementptr inbounds nuw %struct.callback_functions, ptr %2, i32 0, i32 2
  store ptr null, ptr %69, align 8, !tbaa !94
  %70 = getelementptr inbounds nuw %struct.callback_functions, ptr %2, i32 0, i32 3
  store ptr null, ptr %70, align 8, !tbaa !96
  %71 = getelementptr inbounds nuw %struct.callback_functions, ptr %3, i32 0, i32 1
  store ptr @use_MANDATORY_SNI_at_ctx, ptr %71, align 8, !tbaa !93
  %72 = getelementptr inbounds nuw %struct.callback_functions, ptr %3, i32 0, i32 2
  store ptr null, ptr %72, align 8, !tbaa !94
  %73 = getelementptr inbounds nuw %struct.callback_functions, ptr %3, i32 0, i32 3
  store ptr @verify_SNI_real_matching, ptr %73, align 8, !tbaa !96
  call void @test_wolfSSL_client_server(ptr noundef %2, ptr noundef %3)
  %74 = load ptr, ptr @stderr, align 8, !tbaa !22
  %75 = call i32 (ptr, ptr, ...) @fprintf(ptr noundef %74, ptr noundef @.str.2015) #14
  %76 = getelementptr inbounds nuw %struct.callback_functions, ptr %2, i32 0, i32 1
  store ptr null, ptr %76, align 8, !tbaa !93
  %77 = getelementptr inbounds nuw %struct.callback_functions, ptr %2, i32 0, i32 2
  store ptr null, ptr %77, align 8, !tbaa !94
  %78 = getelementptr inbounds nuw %struct.callback_functions, ptr %2, i32 0, i32 3
  store ptr @verify_FATAL_ERROR_on_client, ptr %78, align 8, !tbaa !96
  %79 = getelementptr inbounds nuw %struct.callback_functions, ptr %3, i32 0, i32 1
  store ptr @use_MANDATORY_SNI_at_ctx, ptr %79, align 8, !tbaa !93
  %80 = getelementptr inbounds nuw %struct.callback_functions, ptr %3, i32 0, i32 2
  store ptr null, ptr %80, align 8, !tbaa !94
  %81 = getelementptr inbounds nuw %struct.callback_functions, ptr %3, i32 0, i32 3
  store ptr @verify_SNI_ABSENT_on_server, ptr %81, align 8, !tbaa !96
  call void @test_wolfSSL_client_server(ptr noundef %2, ptr noundef %3)
  %82 = load ptr, ptr @stderr, align 8, !tbaa !22
  %83 = call i32 (ptr, ptr, ...) @fprintf(ptr noundef %82, ptr noundef @.str.2016) #14
  %84 = getelementptr inbounds nuw %struct.callback_functions, ptr %2, i32 0, i32 1
  store ptr null, ptr %84, align 8, !tbaa !93
  %85 = getelementptr inbounds nuw %struct.callback_functions, ptr %2, i32 0, i32 2
  store ptr null, ptr %85, align 8, !tbaa !94
  %86 = getelementptr inbounds nuw %struct.callback_functions, ptr %2, i32 0, i32 3
  store ptr @verify_FATAL_ERROR_on_client, ptr %86, align 8, !tbaa !96
  %87 = getelementptr inbounds nuw %struct.callback_functions, ptr %3, i32 0, i32 1
  store ptr null, ptr %87, align 8, !tbaa !93
  %88 = getelementptr inbounds nuw %struct.callback_functions, ptr %3, i32 0, i32 2
  store ptr @use_MANDATORY_SNI_at_ssl, ptr %88, align 8, !tbaa !94
  %89 = getelementptr inbounds nuw %struct.callback_functions, ptr %3, i32 0, i32 3
  store ptr @verify_SNI_ABSENT_on_server, ptr %89, align 8, !tbaa !96
  call void @test_wolfSSL_client_server(ptr noundef %2, ptr noundef %3)
  %90 = load ptr, ptr @stderr, align 8, !tbaa !22
  %91 = call i32 (ptr, ptr, ...) @fprintf(ptr noundef %90, ptr noundef @.str.2017) #14
  %92 = getelementptr inbounds nuw %struct.callback_functions, ptr %2, i32 0, i32 1
  store ptr null, ptr %92, align 8, !tbaa !93
  %93 = getelementptr inbounds nuw %struct.callback_functions, ptr %2, i32 0, i32 2
  store ptr null, ptr %93, align 8, !tbaa !94
  %94 = getelementptr inbounds nuw %struct.callback_functions, ptr %2, i32 0, i32 3
  store ptr null, ptr %94, align 8, !tbaa !96
  %95 = getelementptr inbounds nuw %struct.callback_functions, ptr %3, i32 0, i32 1
  store ptr @use_MANDATORY_SNI_at_ctx, ptr %95, align 8, !tbaa !93
  %96 = getelementptr inbounds nuw %struct.callback_functions, ptr %3, i32 0, i32 2
  store ptr @use_SNI_at_ssl, ptr %96, align 8, !tbaa !94
  %97 = getelementptr inbounds nuw %struct.callback_functions, ptr %3, i32 0, i32 3
  store ptr @verify_SNI_no_matching, ptr %97, align 8, !tbaa !96
  call void @test_wolfSSL_client_server(ptr noundef %2, ptr noundef %3)
  %98 = load ptr, ptr @stderr, align 8, !tbaa !22
  %99 = call i32 (ptr, ptr, ...) @fprintf(ptr noundef %98, ptr noundef @.str.2018) #14
  %100 = getelementptr inbounds nuw %struct.callback_functions, ptr %2, i32 0, i32 1
  store ptr null, ptr %100, align 8, !tbaa !93
  %101 = getelementptr inbounds nuw %struct.callback_functions, ptr %2, i32 0, i32 2
  store ptr @different_SNI_at_ssl, ptr %101, align 8, !tbaa !94
  %102 = getelementptr inbounds nuw %struct.callback_functions, ptr %2, i32 0, i32 3
  store ptr null, ptr %102, align 8, !tbaa !96
  %103 = getelementptr inbounds nuw %struct.callback_functions, ptr %3, i32 0, i32 1
  store ptr @use_PSEUDO_MANDATORY_SNI_at_ctx, ptr %103, align 8, !tbaa !93
  %104 = getelementptr inbounds nuw %struct.callback_functions, ptr %3, i32 0, i32 2
  store ptr null, ptr %104, align 8, !tbaa !94
  %105 = getelementptr inbounds nuw %struct.callback_functions, ptr %3, i32 0, i32 3
  store ptr @verify_SNI_fake_matching, ptr %105, align 8, !tbaa !96
  call void @test_wolfSSL_client_server(ptr noundef %2, ptr noundef %3)
  br label %106

106:                                              ; preds = %11
  %107 = load i64, ptr %4, align 8, !tbaa !72
  %108 = add i64 %107, 1
  store i64 %108, ptr %4, align 8, !tbaa !72
  br label %7, !llvm.loop !171

109:                                              ; preds = %7
  store i32 1, ptr %1, align 4, !tbaa !10
  %110 = load i32, ptr %1, align 4, !tbaa !10
  call void @llvm.lifetime.end.p0(i64 8, ptr %6) #14
  call void @llvm.lifetime.end.p0(i64 32, ptr %5) #14
  call void @llvm.lifetime.end.p0(i64 8, ptr %4) #14
  call void @llvm.lifetime.end.p0(i64 96, ptr %3) #14
  call void @llvm.lifetime.end.p0(i64 96, ptr %2) #14
  call void @llvm.lifetime.end.p0(i64 4, ptr %1) #14
  ret i32 %110
}