; Function Attrs: cold nounwind uwtable
define internal noundef i32 @test_wolfSSL_UseSNI_connection() #9 {
  %1 = alloca %struct.callback_functions, align 8
  %2 = alloca %struct.callback_functions, align 8
  call void @llvm.lifetime.start.p0(i64 96, ptr nonnull %1) #27
  call void @llvm.lifetime.start.p0(i64 96, ptr nonnull %2) #27
  %3 = getelementptr inbounds nuw i8, ptr %1, i64 80
  %4 = getelementptr inbounds nuw i8, ptr %2, i64 80
  %5 = getelementptr inbounds nuw i8, ptr %1, i64 8
  %6 = getelementptr inbounds nuw i8, ptr %1, i64 16
  %7 = getelementptr inbounds nuw i8, ptr %1, i64 24
  %8 = getelementptr inbounds nuw i8, ptr %2, i64 8
  %9 = getelementptr inbounds nuw i8, ptr %2, i64 16
  %10 = getelementptr inbounds nuw i8, ptr %2, i64 24
  %11 = getelementptr inbounds nuw i8, ptr %1, i64 32
  %12 = getelementptr inbounds nuw i8, ptr %2, i64 8
  br label %13

13:                                               ; preds = %0, %13
  %14 = phi i1 [ true, %0 ], [ false, %13 ]
  %.06 = phi i64 [ 0, %0 ], [ 1, %13 ]
  call void @llvm.memset.p0.i64(ptr noundef nonnull align 8 dereferenceable(96) %11, i8 0, i64 64, i1 false)
  call void @llvm.memset.p0.i64(ptr noundef nonnull align 8 dereferenceable(96) %12, i8 0, i64 88, i1 false)
  %15 = getelementptr inbounds nuw [2 x %struct.anon.2], ptr @__const.test_wolfSSL_UseSNI_connection.methods, i64 0, i64 %.06
  %16 = load ptr, ptr %15, align 16, !tbaa !153
  store ptr %16, ptr %1, align 8, !tbaa !69
  %17 = getelementptr inbounds nuw i8, ptr %15, i64 8
  %18 = load ptr, ptr %17, align 8, !tbaa !155
  store ptr %18, ptr %2, align 8, !tbaa !69
  %19 = load i32, ptr @testDevId, align 4, !tbaa !67
  store i32 %19, ptr %3, align 8, !tbaa !156
  store i32 %19, ptr %4, align 8, !tbaa !156
  %20 = load ptr, ptr @stderr, align 8, !tbaa !22
  %21 = call i64 @fwrite(ptr nonnull @.str.2009, i64 22, i64 1, ptr %20) #34
  store ptr @use_SNI_at_ctx, ptr %5, align 8, !tbaa !72
  call void @llvm.memset.p0.i64(ptr noundef nonnull align 8 dereferenceable(16) %6, i8 0, i64 16, i1 false)
  store ptr @use_SNI_at_ctx, ptr %8, align 8, !tbaa !72
  store ptr null, ptr %9, align 8, !tbaa !73
  store ptr @verify_SNI_real_matching, ptr %10, align 8, !tbaa !75
  call fastcc void @test_wolfSSL_client_server(ptr noundef %1, ptr noundef %2)
  %22 = load ptr, ptr @stderr, align 8, !tbaa !22
  %23 = call i64 @fwrite(ptr nonnull @.str.2010, i64 21, i64 1, ptr %22) #34
  store ptr null, ptr %5, align 8, !tbaa !72
  store ptr @use_SNI_at_ssl, ptr %6, align 8, !tbaa !73
  store ptr @verify_SNI_real_matching, ptr %7, align 8, !tbaa !75
  store ptr null, ptr %8, align 8, !tbaa !72
  store ptr @use_SNI_at_ssl, ptr %9, align 8, !tbaa !73
  store ptr @verify_SNI_real_matching, ptr %10, align 8, !tbaa !75
  call fastcc void @test_wolfSSL_client_server(ptr noundef %1, ptr noundef %2)
  %24 = load ptr, ptr @stderr, align 8, !tbaa !22
  %25 = call i64 @fwrite(ptr nonnull @.str.2011, i64 27, i64 1, ptr %24) #34
  store ptr null, ptr %5, align 8, !tbaa !72
  store ptr @different_SNI_at_ssl, ptr %6, align 8, !tbaa !73
  store ptr @verify_FATAL_ERROR_on_client, ptr %7, align 8, !tbaa !75
  store ptr null, ptr %8, align 8, !tbaa !72
  store ptr @use_SNI_at_ssl, ptr %9, align 8, !tbaa !73
  store ptr @verify_UNKNOWN_SNI_on_server, ptr %10, align 8, !tbaa !75
  call fastcc void @test_wolfSSL_client_server(ptr noundef %1, ptr noundef %2)
  %26 = load ptr, ptr @stderr, align 8, !tbaa !22
  %27 = call i64 @fwrite(ptr nonnull @.str.2012, i64 22, i64 1, ptr %26) #34
  store ptr null, ptr %5, align 8, !tbaa !72
  store ptr @different_SNI_at_ssl, ptr %6, align 8, !tbaa !73
  store ptr null, ptr %7, align 8, !tbaa !75
  store ptr null, ptr %8, align 8, !tbaa !72
  store ptr @use_SNI_WITH_CONTINUE_at_ssl, ptr %9, align 8, !tbaa !73
  store ptr @verify_SNI_no_matching, ptr %10, align 8, !tbaa !75
  call fastcc void @test_wolfSSL_client_server(ptr noundef %1, ptr noundef %2)
  %28 = load ptr, ptr @stderr, align 8, !tbaa !22
  %29 = call i64 @fwrite(ptr nonnull @.str.2013, i64 25, i64 1, ptr %28) #34
  store ptr null, ptr %5, align 8, !tbaa !72
  store ptr @different_SNI_at_ssl, ptr %6, align 8, !tbaa !73
  store ptr null, ptr %7, align 8, !tbaa !75
  store ptr null, ptr %8, align 8, !tbaa !72
  store ptr @use_SNI_WITH_FAKE_ANSWER_at_ssl, ptr %9, align 8, !tbaa !73
  store ptr @verify_SNI_fake_matching, ptr %10, align 8, !tbaa !75
  call fastcc void @test_wolfSSL_client_server(ptr noundef %1, ptr noundef %2)
  %30 = load ptr, ptr @stderr, align 8, !tbaa !22
  %31 = call i64 @fwrite(ptr nonnull @.str.2014, i64 21, i64 1, ptr %30) #34
  store ptr @use_SNI_at_ctx, ptr %5, align 8, !tbaa !72
  call void @llvm.memset.p0.i64(ptr noundef nonnull align 8 dereferenceable(16) %6, i8 0, i64 16, i1 false)
  store ptr @use_MANDATORY_SNI_at_ctx, ptr %8, align 8, !tbaa !72
  store ptr null, ptr %9, align 8, !tbaa !73
  store ptr @verify_SNI_real_matching, ptr %10, align 8, !tbaa !75
  call fastcc void @test_wolfSSL_client_server(ptr noundef %1, ptr noundef %2)
  %32 = load ptr, ptr @stderr, align 8, !tbaa !22
  %33 = call i64 @fwrite(ptr nonnull @.str.2015, i64 37, i64 1, ptr %32) #34
  call void @llvm.memset.p0.i64(ptr noundef nonnull align 8 dereferenceable(16) %5, i8 0, i64 16, i1 false)
  store ptr @verify_FATAL_ERROR_on_client, ptr %7, align 8, !tbaa !75
  store ptr @use_MANDATORY_SNI_at_ctx, ptr %8, align 8, !tbaa !72
  store ptr null, ptr %9, align 8, !tbaa !73
  store ptr @verify_SNI_ABSENT_on_server, ptr %10, align 8, !tbaa !75
  call fastcc void @test_wolfSSL_client_server(ptr noundef %1, ptr noundef %2)
  %34 = load ptr, ptr @stderr, align 8, !tbaa !22
  %35 = call i64 @fwrite(ptr nonnull @.str.2016, i64 37, i64 1, ptr %34) #34
  call void @llvm.memset.p0.i64(ptr noundef nonnull align 8 dereferenceable(16) %5, i8 0, i64 16, i1 false)
  store ptr @verify_FATAL_ERROR_on_client, ptr %7, align 8, !tbaa !75
  store ptr null, ptr %8, align 8, !tbaa !72
  store ptr @use_MANDATORY_SNI_at_ssl, ptr %9, align 8, !tbaa !73
  store ptr @verify_SNI_ABSENT_on_server, ptr %10, align 8, !tbaa !75
  call fastcc void @test_wolfSSL_client_server(ptr noundef %1, ptr noundef %2)
  %36 = load ptr, ptr @stderr, align 8, !tbaa !22
  %37 = call i64 @fwrite(ptr nonnull @.str.2017, i64 38, i64 1, ptr %36) #34
  call void @llvm.memset.p0.i64(ptr noundef nonnull align 8 dereferenceable(24) %5, i8 0, i64 24, i1 false)
  store ptr @use_MANDATORY_SNI_at_ctx, ptr %8, align 8, !tbaa !72
  store ptr @use_SNI_at_ssl, ptr %9, align 8, !tbaa !73
  store ptr @verify_SNI_no_matching, ptr %10, align 8, !tbaa !75
  call fastcc void @test_wolfSSL_client_server(ptr noundef %1, ptr noundef %2)
  %38 = load ptr, ptr @stderr, align 8, !tbaa !22
  %39 = call i64 @fwrite(ptr nonnull @.str.2018, i64 46, i64 1, ptr %38) #34
  store ptr null, ptr %5, align 8, !tbaa !72
  store ptr @different_SNI_at_ssl, ptr %6, align 8, !tbaa !73
  store ptr null, ptr %7, align 8, !tbaa !75
  store ptr @use_PSEUDO_MANDATORY_SNI_at_ctx, ptr %8, align 8, !tbaa !72
  store ptr null, ptr %9, align 8, !tbaa !73
  store ptr @verify_SNI_fake_matching, ptr %10, align 8, !tbaa !75
  call fastcc void @test_wolfSSL_client_server(ptr noundef %1, ptr noundef %2)
  br i1 %14, label %13, label %40, !llvm.loop !157

40:                                               ; preds = %13
  call void @llvm.lifetime.end.p0(i64 96, ptr nonnull %2) #27
  call void @llvm.lifetime.end.p0(i64 96, ptr nonnull %1) #27
  ret i32 1
}